Certificate:
    Data:
        Version: 3 (0x2)
        Serial Number: 1 (0x1)
        Signature Algorithm: sha256WithRSAEncryption
        Issuer: C=US, ST=CA, L=SanJose, O=Cisco, OU=freeradius, CN=freeradius-CA
        Validity
            Not Before: Jul  1 07:45:14 2026 GMT
            Not After : Jul  1 07:45:14 2027 GMT
        Subject: CN=test-freeradius-device, C=US, ST=CA, L=SanJose, O=Cisco, OU=Testing
        Subject Public Key Info:
            Public Key Algorithm: rsaEncryption
                RSA Public-Key: (2048 bit)
                Modulus:
                    00:ec:cf:bb:5d:fc:ec:2f:23:9b:b7:cf:3b:4b:24:
                    d1:37:4b:85:fd:bd:80:2a:08:e8:d0:1c:97:ef:6b:
                    54:cb:28:48:f0:68:8f:bc:c1:e9:2a:50:74:4b:86:
                    9b:9c:dc:05:92:f7:91:3e:55:36:62:9f:f7:70:8e:
                    4f:57:8c:7e:2a:5a:0b:74:87:20:ba:b0:1e:f1:67:
                    cc:08:d7:df:a7:5e:cd:38:6d:c7:cb:c7:45:31:20:
                    b9:0b:4c:37:ba:3b:a5:fc:ed:4d:be:18:f3:60:66:
                    71:c1:88:b7:cc:89:b5:47:6a:93:d3:75:c0:39:de:
                    42:ac:26:ff:28:ef:24:7e:ea:5f:e3:bc:da:0c:b0:
                    25:5f:39:13:b5:be:71:15:39:ac:24:ab:f6:83:c8:
                    26:e3:53:f8:c3:c0:71:d0:11:89:70:8c:ef:f8:b6:
                    89:34:47:ca:2d:a5:65:d2:0d:fc:8d:23:57:78:eb:
                    af:c2:72:bb:be:a1:3d:e9:7b:ec:3c:c7:78:66:34:
                    68:05:da:f8:c7:46:1c:f2:a8:c8:b8:cb:2b:f6:24:
                    c8:db:a5:95:aa:8e:56:83:d3:89:29:0c:30:61:99:
                    ec:af:60:65:35:4b:80:38:d8:7d:7a:64:18:e9:19:
                    79:d1:7a:3b:23:24:6d:a1:8c:1b:ff:05:17:90:24:
                    ee:17
                Exponent: 65537 (0x10001)
        X509v3 extensions:
            X509v3 Basic Constraints: 
                CA:FALSE
            X509v3 Key Usage: 
                Digital Signature, Key Encipherment
            X509v3 Extended Key Usage: 
                TLS Web Client Authentication
            X509v3 Subject Key Identifier: 
                92:2E:60:CA:3E:A5:25:61:FA:79:C5:B1:89:A3:D9:E0:0B:3C:90:39
            X509v3 Authority Key Identifier: 
                keyid:F8:BD:C2:BE:06:03:56:F6:6B:E8:17:F4:3F:10:57:CE:A5:F6:6C:26

    Signature Algorithm: sha256WithRSAEncryption
         92:2f:25:8d:f4:ae:d7:27:08:c0:b6:04:4e:ea:e3:52:96:69:
         38:76:f7:cd:bd:d9:21:df:4c:bd:f6:8b:95:54:3d:41:93:6a:
         95:5e:d9:47:8f:ae:e1:73:4a:7d:f0:38:db:33:a6:cd:39:2b:
         1c:f3:a6:70:26:d8:81:90:21:2c:07:25:db:b2:64:c3:39:25:
         82:69:2a:51:f0:ff:af:c7:15:3b:5b:3a:12:f1:ae:7a:ea:54:
         cb:ee:91:23:7e:a3:f0:d3:26:70:5a:b3:1b:e8:9c:14:d4:41:
         84:5e:a4:dd:f1:31:aa:07:61:ab:1b:aa:3c:af:ba:4f:16:50:
         03:0d:42:e9:01:51:f0:79:e0:8f:3b:05:56:40:4a:25:78:fb:
         be:73:f8:08:d4:2c:77:85:72:fa:1a:51:24:db:97:cf:0a:da:
         44:ba:ab:42:be:d4:f6:1f:cb:30:90:c6:76:62:d5:fc:e9:aa:
         d2:e2:4f:cb:88:9c:49:6e:35:dd:fb:07:b5:01:a1:e1:8b:f7:
         28:73:ba:db:8e:b6:12:3b:bb:6c:b7:d3:4f:85:d9:0c:63:44:
         20:06:5f:24:74:7c:c5:13:07:80:54:8a:71:49:91:16:44:d8:
         6b:e9:a3:d7:59:1c:46:fe:cd:67:52:6a:96:ed:26:a1:b6:dd:
         ae:04:d5:4e:2b:40:1f:3b:3b:57:d0:94:37:a6:05:e5:a4:04:
         65:41:a6:57:70:19:59:ab:04:17:9f:09:d2:d9:7c:02:c7:90:
         20:52:a3:18:22:ce:0b:61:8b:69:32:1f:09:7a:53:15:dc:73:
         6a:f7:67:d0:43:b7:87:12:5f:44:76:ae:85:e6:b3:18:0b:d0:
         06:47:e4:00:8b:8f:10:70:91:21:cb:b8:60:5f:0a:2e:79:af:
         cc:46:cb:c5:f2:e7:a8:1b:16:2d:19:90:61:db:f1:19:40:6b:
         7a:f7:f8:09:62:fa:7c:ce:c7:b6:ce:8f:7e:1d:25:10:3e:d3:
         cd:04:0c:81:83:be:ce:3c:7c:15:1d:31:48:4a:3d:ae:6e:2e:
         62:55:05:a7:04:b8:11:02:84:b7:fa:fb:ff:77:43:3f:c3:a3:
         9d:ee:a1:1d:26:42:cf:cf:8f:52:58:23:77:e6:90:20:99:7b:
         e0:a8:b3:96:73:65:b0:6f:00:1e:eb:7a:de:9a:33:c6:c2:25:
         02:00:c4:28:50:c9:7f:0c:2e:6b:c4:d3:7c:9d:d5:59:81:ec:
         8a:61:c5:ba:8d:1f:b6:13:e6:e1:21:db:fe:0f:29:46:77:be:
         66:fa:a6:94:f8:b6:96:44:a4:c2:ba:ca:15:8d:19:c3:89:c7:
         92:b0:d6:7d:f4:ad:70:34
-----BEGIN CERTIFICATE-----
MIIEwjCCAqqgAwIBAgIBATANBgkqhkiG9w0BAQsFADBpMQswCQYDVQQGEwJVUzEL
MAkGA1UECAwCQ0ExEDAOBgNVBAcMB1Nhbkpvc2UxDjAMBgNVBAoMBUNpc2NvMRMw
EQYDVQQLDApmcmVlcmFkaXVzMRYwFAYDVQQDDA1mcmVlcmFkaXVzLUNBMB4XDTI2
MDcwMTA3NDUxNFoXDTI3MDcwMTA3NDUxNFowbzEfMB0GA1UEAwwWdGVzdC1mcmVl
cmFkaXVzLWRldmljZTELMAkGA1UEBhMCVVMxCzAJBgNVBAgMAkNBMRAwDgYDVQQH
DAdTYW5Kb3NlMQ4wDAYDVQQKDAVDaXNjbzEQMA4GA1UECwwHVGVzdGluZzCCASIw
DQYJKoZIhvcNAQEBBQADggEPADCCAQoCggEBAOzPu1387C8jm7fPO0sk0TdLhf29
gCoI6NAcl+9rVMsoSPBoj7zB6SpQdEuGm5zcBZL3kT5VNmKf93COT1eMfipaC3SH
ILqwHvFnzAjX36dezThtx8vHRTEguQtMN7o7pfztTb4Y82BmccGIt8yJtUdqk9N1
wDneQqwm/yjvJH7qX+O82gywJV85E7W+cRU5rCSr9oPIJuNT+MPAcdARiXCM7/i2
iTRHyi2lZdIN/I0jV3jrr8Jyu76hPel77DzHeGY0aAXa+MdGHPKoyLjLK/YkyNul
laqOVoPTiSkMMGGZ7K9gZTVLgDjYfXpkGOkZedF6OyMkbaGMG/8FF5Ak7hcCAwEA
AaNvMG0wCQYDVR0TBAIwADALBgNVHQ8EBAMCBaAwEwYDVR0lBAwwCgYIKwYBBQUH
AwIwHQYDVR0OBBYEFJIuYMo+pSVh+nnFsYmj2eALPJA5MB8GA1UdIwQYMBaAFPi9
wr4GA1b2a+gX9D8QV86l9mwmMA0GCSqGSIb3DQEBCwUAA4ICAQCSLyWN9K7XJwjA
tgRO6uNSlmk4dvfNvdkh30y99ouVVD1Bk2qVXtlHj67hc0p98DjbM6bNOSsc86Zw
JtiBkCEsByXbsmTDOSWCaSpR8P+vxxU7WzoS8a566lTL7pEjfqPw0yZwWrMb6JwU
1EGEXqTd8TGqB2GrG6o8r7pPFlADDULpAVHweeCPOwVWQEolePu+c/gI1Cx3hXL6
GlEk25fPCtpEuqtCvtT2H8swkMZ2YtX86arS4k/LiJxJbjXd+we1AaHhi/coc7rb
jrYSO7tst9NPhdkMY0QgBl8kdHzFEweAVIpxSZEWRNhr6aPXWRxG/s1nUmqW7Sah
tt2uBNVOK0AfOztX0JQ3pgXlpARlQaZXcBlZqwQXnwnS2XwCx5AgUqMYIs4LYYtp
Mh8JelMV3HNq92fQQ7eHEl9Edq6F5rMYC9AGR+QAi48QcJEhy7hgXwouea/MRsvF
8ueoGxYtGZBh2/EZQGt69/gJYvp8zse2zo9+HSUQPtPNBAyBg77OPHwVHTFISj2u
bi5iVQWnBLgRAoS3+vv/d0M/w6Od7qEdJkLPz49SWCN35pAgmXvgqLOWc2WwbwAe
63remjPGwiUCAMQoUMl/DC5rxNN8ndVZgeyKYcW6jR+2E+bhIdv+DylGd75m+qaU
+LaWRKTCusoVjRnDiceSsNZ99K1wNA==
-----END CERTIFICATE-----
