Certificate:
    Data:
        Version: 3 (0x2)
        Serial Number: 1 (0x1)
        Signature Algorithm: sha256WithRSAEncryption
        Issuer: C=US, ST=CA, L=SanJose, O=Cisco, OU=gateway, CN=gateway-CA
        Validity
            Not Before: Jul  1 07:45:13 2026 GMT
            Not After : Jul  1 07:45:13 2027 GMT
        Subject: CN=test-gateway-device, C=US, ST=CA, L=SanJose, O=Cisco, OU=Testing
        Subject Public Key Info:
            Public Key Algorithm: rsaEncryption
                RSA Public-Key: (2048 bit)
                Modulus:
                    00:e1:c0:f4:da:db:94:54:be:a5:9b:44:10:50:28:
                    47:74:0e:02:89:7c:f7:39:80:79:a5:7e:28:40:3b:
                    0d:cb:83:50:f0:ea:48:b1:07:2f:27:d6:50:03:41:
                    9f:77:ad:47:e7:62:6b:17:88:b0:66:ab:3c:78:31:
                    36:3e:88:d0:7b:ae:91:21:70:8c:7d:92:1b:0d:ab:
                    96:87:48:45:50:5b:00:c3:43:2c:a8:1a:c7:dc:16:
                    ad:9a:54:8b:11:89:4e:fa:4f:21:83:62:bc:97:95:
                    d0:bc:be:e1:40:c2:58:0d:39:4c:d5:6c:65:e4:e0:
                    55:9c:f8:ff:11:da:16:b4:14:90:0b:f2:58:81:d9:
                    0d:0a:de:bd:e7:f0:c7:71:3e:61:3b:29:1b:c6:a2:
                    9d:d0:a6:a5:a5:da:f0:68:91:c2:20:df:fc:cc:ef:
                    4d:0e:91:31:8b:3f:d3:72:04:bf:64:84:45:8f:c2:
                    13:9c:d3:af:16:b7:5f:52:2f:9c:7d:0e:ef:74:24:
                    da:4e:30:f5:62:0a:e5:88:77:32:20:70:66:aa:46:
                    ba:30:02:88:c1:6b:ca:9f:49:f6:f9:bd:21:bb:c6:
                    7d:ca:36:3e:e5:22:36:91:3f:8a:61:ab:74:3a:3b:
                    9b:8f:6b:b6:6f:29:31:cb:3d:34:ec:ab:85:21:11:
                    27:73
                Exponent: 65537 (0x10001)
        X509v3 extensions:
            X509v3 Basic Constraints: 
                CA:FALSE
            X509v3 Key Usage: 
                Digital Signature, Key Encipherment
            X509v3 Extended Key Usage: 
                TLS Web Client Authentication
            X509v3 Subject Key Identifier: 
                C0:E8:5F:75:20:6F:5C:4C:5B:6F:8D:7F:F0:30:7F:2E:E0:AB:35:BB
            X509v3 Authority Key Identifier: 
                keyid:12:7C:6D:4F:B7:AB:0F:4E:1C:E0:E1:E3:75:2F:F4:E0:1E:3A:A7:98

    Signature Algorithm: sha256WithRSAEncryption
         be:f7:8d:61:1b:2c:e7:76:4e:0a:ba:17:be:6e:37:d5:5f:8d:
         fc:7c:35:35:4a:67:95:e3:2e:d0:c2:56:6b:d6:e8:13:cc:00:
         cb:95:11:c3:30:d3:60:26:1f:ce:24:b9:36:26:cc:14:5d:ce:
         74:f7:da:72:86:3e:ef:45:cb:3d:4e:6f:a4:7c:66:9a:23:7b:
         d0:5d:42:fd:c3:32:f1:8e:50:ca:88:ac:9c:9e:6b:a9:f5:97:
         c0:bc:1b:2b:57:73:32:e7:d7:29:85:0f:53:ad:c9:26:6b:8b:
         2b:ba:3a:21:d1:46:77:ac:14:31:b0:46:db:fd:54:4f:a5:e7:
         e8:71:d8:43:2f:8e:24:a8:a6:0a:ca:08:ee:e6:37:de:21:61:
         6d:c3:7a:da:2f:95:1c:57:12:ea:2a:0f:a0:60:4d:13:5f:26:
         55:b9:b1:36:de:c2:f0:b5:c5:7b:fb:7b:1d:42:17:85:fd:8f:
         7a:dd:50:51:77:d2:e8:b4:0f:2a:83:15:c8:e8:5a:96:3d:a3:
         1d:fb:ed:2c:54:ab:8c:5a:8e:b5:c3:66:90:ea:39:77:5a:63:
         8a:d5:61:f8:9d:ac:12:ad:1d:52:bd:31:b5:69:26:47:4f:03:
         98:30:ee:84:78:fe:4f:55:8f:85:ec:58:41:0d:ae:dd:a8:d2:
         b3:78:7d:a5:34:03:87:61:f6:dc:01:e5:1d:65:81:bf:8b:20:
         35:c8:0d:96:50:0b:21:2a:a5:41:15:11:39:bc:f2:eb:e4:aa:
         d8:49:dd:a2:87:07:dd:85:d5:31:14:15:09:72:a0:77:da:75:
         82:1f:ad:be:28:e9:28:43:9b:60:9a:86:9a:87:0f:dd:46:c3:
         16:63:8a:47:90:2e:17:e6:d7:e1:93:0b:73:13:28:61:96:06:
         a0:46:e9:a5:64:a5:ac:64:de:c2:b1:3e:ca:c6:e7:cb:34:02:
         13:71:3c:9c:b8:f6:8e:e0:14:ef:0e:60:18:0e:62:fd:52:2e:
         af:77:1d:9b:ee:94:73:d4:2c:0e:4a:08:a0:6d:fc:4c:18:36:
         01:97:25:82:6a:82:e2:f5:69:c9:88:af:e7:89:3e:94:09:a1:
         80:c0:c4:b9:fa:43:b9:d0:e6:99:d0:bd:22:2d:5c:16:05:71:
         a5:0f:89:3f:85:e6:94:eb:e2:50:43:cd:60:92:c0:1a:01:d6:
         4d:82:23:09:b9:05:0f:c8:2f:d0:d7:91:14:6d:de:8e:b1:2d:
         0c:9a:bf:0e:42:8c:cc:fd:1b:da:07:26:a1:45:a7:97:28:dc:
         b3:32:69:65:8e:01:69:3c:86:48:50:e8:ad:f8:12:0a:d4:74:
         60:1f:f2:45:c9:41:65:04
-----BEGIN CERTIFICATE-----
MIIEuTCCAqGgAwIBAgIBATANBgkqhkiG9w0BAQsFADBjMQswCQYDVQQGEwJVUzEL
MAkGA1UECAwCQ0ExEDAOBgNVBAcMB1Nhbkpvc2UxDjAMBgNVBAoMBUNpc2NvMRAw
DgYDVQQLDAdnYXRld2F5MRMwEQYDVQQDDApnYXRld2F5LUNBMB4XDTI2MDcwMTA3
NDUxM1oXDTI3MDcwMTA3NDUxM1owbDEcMBoGA1UEAwwTdGVzdC1nYXRld2F5LWRl
dmljZTELMAkGA1UEBhMCVVMxCzAJBgNVBAgMAkNBMRAwDgYDVQQHDAdTYW5Kb3Nl
MQ4wDAYDVQQKDAVDaXNjbzEQMA4GA1UECwwHVGVzdGluZzCCASIwDQYJKoZIhvcN
AQEBBQADggEPADCCAQoCggEBAOHA9NrblFS+pZtEEFAoR3QOAol89zmAeaV+KEA7
DcuDUPDqSLEHLyfWUANBn3etR+diaxeIsGarPHgxNj6I0HuukSFwjH2SGw2rlodI
RVBbAMNDLKgax9wWrZpUixGJTvpPIYNivJeV0Ly+4UDCWA05TNVsZeTgVZz4/xHa
FrQUkAvyWIHZDQrevefwx3E+YTspG8aindCmpaXa8GiRwiDf/MzvTQ6RMYs/03IE
v2SERY/CE5zTrxa3X1IvnH0O73Qk2k4w9WIK5Yh3MiBwZqpGujACiMFryp9J9vm9
IbvGfco2PuUiNpE/imGrdDo7m49rtm8pMcs9NOyrhSERJ3MCAwEAAaNvMG0wCQYD
VR0TBAIwADALBgNVHQ8EBAMCBaAwEwYDVR0lBAwwCgYIKwYBBQUHAwIwHQYDVR0O
BBYEFMDoX3Ugb1xMW2+Nf/Awfy7gqzW7MB8GA1UdIwQYMBaAFBJ8bU+3qw9OHODh
43Uv9OAeOqeYMA0GCSqGSIb3DQEBCwUAA4ICAQC+941hGyzndk4Kuhe+bjfVX438
fDU1SmeV4y7QwlZr1ugTzADLlRHDMNNgJh/OJLk2JswUXc5099pyhj7vRcs9Tm+k
fGaaI3vQXUL9wzLxjlDKiKycnmup9ZfAvBsrV3My59cphQ9Trckma4srujoh0UZ3
rBQxsEbb/VRPpefocdhDL44kqKYKygju5jfeIWFtw3raL5UcVxLqKg+gYE0TXyZV
ubE23sLwtcV7+3sdQheF/Y963VBRd9LotA8qgxXI6FqWPaMd++0sVKuMWo61w2aQ
6jl3WmOK1WH4nawSrR1SvTG1aSZHTwOYMO6EeP5PVY+F7FhBDa7dqNKzeH2lNAOH
YfbcAeUdZYG/iyA1yA2WUAshKqVBFRE5vPLr5KrYSd2ihwfdhdUxFBUJcqB32nWC
H62+KOkoQ5tgmoaahw/dRsMWY4pHkC4X5tfhkwtzEyhhlgagRumlZKWsZN7CsT7K
xufLNAITcTycuPaO4BTvDmAYDmL9Ui6vdx2b7pRz1CwOSgigbfxMGDYBlyWCaoLi
9WnJiK/niT6UCaGAwMS5+kO50OaZ0L0iLVwWBXGlD4k/heaU6+JQQ81gksAaAdZN
giMJuQUPyC/Q15EUbd6OsS0Mmr8OQozM/RvaByahRaeXKNyzMmlljgFpPIZIUOit
+BIK1HRgH/JFyUFlBA==
-----END CERTIFICATE-----
