Certificate:
    Data:
        Version: 3 (0x2)
        Serial Number: 1 (0x1)
        Signature Algorithm: sha256WithRSAEncryption
        Issuer: C=US, ST=CA, L=SanJose, O=Cisco, OU=iot, CN=iot-CA
        Validity
            Not Before: Jul  1 07:45:14 2026 GMT
            Not After : Jul  1 07:45:14 2027 GMT
        Subject: CN=test-iot-device, C=US, ST=CA, L=SanJose, O=Cisco, OU=Testing
        Subject Public Key Info:
            Public Key Algorithm: rsaEncryption
                RSA Public-Key: (2048 bit)
                Modulus:
                    00:c5:b6:0b:ef:49:b3:ca:84:da:2a:57:b4:ed:a9:
                    d8:ca:6b:f4:4b:fa:86:93:d7:da:87:b8:af:d1:39:
                    56:12:cf:d5:04:79:ac:eb:8e:ee:ab:34:96:db:72:
                    24:47:67:64:fe:11:4d:50:62:0e:60:ff:33:1b:ba:
                    5c:79:f3:b9:22:45:68:f1:22:f6:5a:12:03:9b:8c:
                    63:6c:6f:43:c2:98:f5:ff:de:35:d8:52:5e:11:2e:
                    36:ed:ad:95:fb:4f:83:37:64:5b:72:5f:7e:be:c4:
                    b0:dc:f8:7b:a3:79:20:8b:4a:2d:0c:b3:bc:59:8c:
                    cf:e5:9c:5b:c2:2c:c8:16:55:50:d9:e8:b9:a9:a2:
                    5f:78:c5:e4:bb:2c:f0:83:ff:24:e8:5f:31:fa:80:
                    ea:14:fe:90:ec:6c:c9:aa:e9:15:bd:25:1d:3e:e6:
                    b5:f1:c1:ab:e8:8c:3d:5d:35:0f:34:f6:89:fe:4e:
                    64:3d:ac:e2:3b:57:01:4e:b2:e2:7e:bd:7b:ea:16:
                    70:ad:50:f6:f9:df:ff:26:2a:22:1e:d0:c2:79:38:
                    88:4f:2b:3b:b2:98:77:d7:9d:82:60:9c:d5:40:af:
                    21:de:4b:14:86:15:00:f1:de:59:9c:5e:1d:90:8e:
                    0a:a9:8a:3c:95:a0:11:ed:e3:5b:9b:41:57:99:d3:
                    02:af
                Exponent: 65537 (0x10001)
        X509v3 extensions:
            X509v3 Basic Constraints: 
                CA:FALSE
            X509v3 Key Usage: 
                Digital Signature, Key Encipherment
            X509v3 Extended Key Usage: 
                TLS Web Client Authentication
            X509v3 Subject Key Identifier: 
                D3:2E:06:AE:36:EC:BE:6B:01:1E:87:34:F0:E6:6B:93:3D:61:1E:CA
            X509v3 Authority Key Identifier: 
                keyid:6C:19:91:C7:A4:9E:45:3B:F1:CF:97:4B:D4:64:9D:5B:44:8C:70:AA

    Signature Algorithm: sha256WithRSAEncryption
         52:fc:cd:b8:0d:63:75:46:9a:2a:72:4c:44:53:a5:6f:2b:cc:
         58:c5:d4:35:2c:05:04:d2:9b:95:32:50:71:90:88:b5:a9:9b:
         39:f6:30:6e:8d:a5:ac:61:6b:a5:f9:cd:e3:bf:a5:4a:ec:14:
         fd:d2:8b:72:98:c0:fe:13:b0:e8:b0:da:5f:10:df:cf:f6:81:
         ba:00:ab:df:58:ea:85:b1:08:a3:af:60:e2:d4:78:d8:25:43:
         45:c5:50:60:db:ce:9f:54:f5:d2:58:09:46:1a:9c:68:0d:bb:
         36:e5:78:12:e8:48:78:54:d9:74:e5:0c:5e:af:ec:3b:99:b3:
         ac:ff:0b:50:f7:52:af:d1:e9:89:cf:42:47:c8:6d:fa:46:bb:
         26:f9:3c:7a:16:80:fe:5f:be:26:73:c8:34:f8:45:2a:cb:81:
         17:05:92:e5:7a:4d:28:0f:07:08:f9:1c:25:69:d0:99:26:3e:
         8d:79:77:b2:9c:5b:c0:a7:da:39:a1:c2:28:b5:67:84:e4:f3:
         3d:de:f4:3b:d6:50:19:75:00:30:f8:be:03:1a:c8:ce:49:cf:
         c6:ed:68:5d:5e:1e:3b:a4:be:e3:8c:58:94:59:49:eb:e2:10:
         82:07:00:bf:ce:d1:36:af:62:5d:1a:46:73:8c:bf:2c:b3:b9:
         b2:9b:96:37:66:16:ae:a3:c7:f6:bc:f0:f9:fe:ee:dc:c2:2f:
         09:93:82:fa:7e:7c:33:01:ed:cc:e6:d0:47:76:e0:7a:64:40:
         94:51:cc:31:9e:c5:a1:82:b5:44:a7:fd:b6:30:0f:ce:42:a3:
         5d:d2:a1:eb:6f:42:24:17:53:39:65:da:41:b4:e2:b2:9b:98:
         3c:2d:5b:ff:b9:9e:80:28:7c:14:9b:f8:44:c1:3f:74:8b:a9:
         70:cc:5e:df:c1:73:e5:58:11:99:22:76:5c:7b:27:7b:4f:c0:
         5f:6a:41:e9:d6:a1:83:c2:d2:f3:ce:b3:db:18:cf:37:ab:eb:
         2f:e2:75:34:7e:9d:24:5b:bc:46:57:5b:3f:66:63:49:e3:80:
         31:2c:2e:ce:dc:f2:23:ed:17:0e:69:2d:7e:a2:8d:24:2e:f4:
         7d:31:c4:0c:80:dd:24:c2:41:73:7f:2e:cb:85:9a:dc:46:09:
         46:83:8f:a9:d4:e6:24:1a:c0:95:b8:21:54:2b:2e:2d:0e:89:
         da:a6:f4:20:c0:c1:20:6c:41:6d:9d:cb:90:7f:70:c2:4f:20:
         6b:ba:92:01:ee:c6:77:c3:21:b1:bb:04:c1:e2:c7:b2:5a:e7:
         9e:1f:13:0f:f6:e3:08:f2:4d:a1:31:be:f9:a0:26:39:01:36:
         96:17:2c:3f:b1:42:e8:75
-----BEGIN CERTIFICATE-----
MIIErTCCApWgAwIBAgIBATANBgkqhkiG9w0BAQsFADBbMQswCQYDVQQGEwJVUzEL
MAkGA1UECAwCQ0ExEDAOBgNVBAcMB1Nhbkpvc2UxDjAMBgNVBAoMBUNpc2NvMQww
CgYDVQQLDANpb3QxDzANBgNVBAMMBmlvdC1DQTAeFw0yNjA3MDEwNzQ1MTRaFw0y
NzA3MDEwNzQ1MTRaMGgxGDAWBgNVBAMMD3Rlc3QtaW90LWRldmljZTELMAkGA1UE
BhMCVVMxCzAJBgNVBAgMAkNBMRAwDgYDVQQHDAdTYW5Kb3NlMQ4wDAYDVQQKDAVD
aXNjbzEQMA4GA1UECwwHVGVzdGluZzCCASIwDQYJKoZIhvcNAQEBBQADggEPADCC
AQoCggEBAMW2C+9Js8qE2ipXtO2p2Mpr9Ev6hpPX2oe4r9E5VhLP1QR5rOuO7qs0
lttyJEdnZP4RTVBiDmD/Mxu6XHnzuSJFaPEi9loSA5uMY2xvQ8KY9f/eNdhSXhEu
Nu2tlftPgzdkW3Jffr7EsNz4e6N5IItKLQyzvFmMz+WcW8IsyBZVUNnouamiX3jF
5Lss8IP/JOhfMfqA6hT+kOxsyarpFb0lHT7mtfHBq+iMPV01DzT2if5OZD2s4jtX
AU6y4n69e+oWcK1Q9vnf/yYqIh7Qwnk4iE8rO7KYd9edgmCc1UCvId5LFIYVAPHe
WZxeHZCOCqmKPJWgEe3jW5tBV5nTAq8CAwEAAaNvMG0wCQYDVR0TBAIwADALBgNV
HQ8EBAMCBaAwEwYDVR0lBAwwCgYIKwYBBQUHAwIwHQYDVR0OBBYEFNMuBq427L5r
AR6HNPDma5M9YR7KMB8GA1UdIwQYMBaAFGwZkceknkU78c+XS9RknVtEjHCqMA0G
CSqGSIb3DQEBCwUAA4ICAQBS/M24DWN1RpoqckxEU6VvK8xYxdQ1LAUE0puVMlBx
kIi1qZs59jBujaWsYWul+c3jv6VK7BT90otymMD+E7DosNpfEN/P9oG6AKvfWOqF
sQijr2Di1HjYJUNFxVBg286fVPXSWAlGGpxoDbs25XgS6Eh4VNl05Qxer+w7mbOs
/wtQ91Kv0emJz0JHyG36Rrsm+Tx6FoD+X74mc8g0+EUqy4EXBZLlek0oDwcI+Rwl
adCZJj6NeXeynFvAp9o5ocIotWeE5PM93vQ71lAZdQAw+L4DGsjOSc/G7WhdXh47
pL7jjFiUWUnr4hCCBwC/ztE2r2JdGkZzjL8ss7mym5Y3Zhauo8f2vPD5/u7cwi8J
k4L6fnwzAe3M5tBHduB6ZECUUcwxnsWhgrVEp/22MA/OQqNd0qHrb0IkF1M5ZdpB
tOKym5g8LVv/uZ6AKHwUm/hEwT90i6lwzF7fwXPlWBGZInZceyd7T8BfakHp1qGD
wtLzzrPbGM83q+sv4nU0fp0kW7xGV1s/ZmNJ44AxLC7O3PIj7RcOaS1+oo0kLvR9
McQMgN0kwkFzfy7LhZrcRglGg4+p1OYkGsCVuCFUKy4tDonapvQgwMEgbEFtncuQ
f3DCTyBrupIB7sZ3wyGxuwTB4seyWueeHxMP9uMI8k2hMb75oCY5ATaWFyw/sULo
dQ==
-----END CERTIFICATE-----
